target datalayout = "e-m:e-p270:32:32-p271:32:32-p272:64:64-i64:64-i128:128-f80:128-n8:16:32:64-S128"
target triple = "x86_64-pc-linux-gnu"

%struct.HashJoinTableData = type { i32, i32, i32, i32, i32, %union.anon, i8, ptr, i32, i32, ptr, i32, i32, i32, i32, i8, double, double, double, ptr, ptr, i64, i64, i64, i64, i64, ptr, ptr, ptr, ptr, ptr, ptr, ptr, ptr, i64 }
%union.anon = type { ptr }

; Function Attrs: inlinehint nounwind uwtable
define internal i32 @pg_rotate_right32(i32 noundef %0, i32 noundef %1) #3 {
  %3 = alloca i32, align 4
  %4 = alloca i32, align 4
  store i32 %0, ptr %3, align 4
  store i32 %1, ptr %4, align 4
  %5 = load i32, ptr %3, align 4
  %6 = load i32, ptr %4, align 4
  %7 = lshr i32 %5, %6
  %8 = load i32, ptr %3, align 4
  %9 = load i32, ptr %4, align 4
  %10 = sub i32 32, %9
  %11 = shl i32 %8, %10
  %12 = or i32 %7, %11
  ret i32 %12
}

; Function Attrs: nounwind uwtable
define dso_local void @ExecHashGetBucketAndBatch(ptr noundef %0, i32 noundef %1, ptr noundef %2, ptr noundef %3) #0 {
  %5 = alloca ptr, align 8
  %6 = alloca i32, align 4
  %7 = alloca ptr, align 8
  %8 = alloca ptr, align 8
  %9 = alloca i32, align 4
  %10 = alloca i32, align 4
  store ptr %0, ptr %5, align 8
  store i32 %1, ptr %6, align 4
  store ptr %2, ptr %7, align 8
  store ptr %3, ptr %8, align 8
  call void @llvm.lifetime.start.p0(i64 4, ptr %9) #9
  %11 = load ptr, ptr %5, align 8
  %12 = getelementptr inbounds nuw %struct.HashJoinTableData, ptr %11, i32 0, i32 0
  %13 = load i32, ptr %12, align 8
  store i32 %13, ptr %9, align 4
  call void @llvm.lifetime.start.p0(i64 4, ptr %10) #9
  %14 = load ptr, ptr %5, align 8
  %15 = getelementptr inbounds nuw %struct.HashJoinTableData, ptr %14, i32 0, i32 11
  %16 = load i32, ptr %15, align 8
  store i32 %16, ptr %10, align 4
  %17 = load i32, ptr %10, align 4
  %18 = icmp ugt i32 %17, 1
  br i1 %18, label %19, label %34

19:                                               ; preds = %4
  %20 = load i32, ptr %6, align 4
  %21 = load i32, ptr %9, align 4
  %22 = sub i32 %21, 1
  %23 = and i32 %20, %22
  %24 = load ptr, ptr %7, align 8
  store i32 %23, ptr %24, align 4
  %25 = load i32, ptr %6, align 4
  %26 = load ptr, ptr %5, align 8
  %27 = getelementptr inbounds nuw %struct.HashJoinTableData, ptr %26, i32 0, i32 1
  %28 = load i32, ptr %27, align 4
  %29 = call i32 @pg_rotate_right32(i32 noundef %25, i32 noundef %28)
  %30 = load i32, ptr %10, align 4
  %31 = sub i32 %30, 1
  %32 = and i32 %29, %31
  %33 = load ptr, ptr %8, align 8
  store i32 %32, ptr %33, align 4
  br label %41

34:                                               ; preds = %4
  %35 = load i32, ptr %6, align 4
  %36 = load i32, ptr %9, align 4
  %37 = sub i32 %36, 1
  %38 = and i32 %35, %37
  %39 = load ptr, ptr %7, align 8
  store i32 %38, ptr %39, align 4
  %40 = load ptr, ptr %8, align 8
  store i32 0, ptr %40, align 4
  br label %41

41:                                               ; preds = %34, %19
  call void @llvm.lifetime.end.p0(i64 4, ptr %10) #9
  call void @llvm.lifetime.end.p0(i64 4, ptr %9) #9
  ret void
}