; Function Attrs: mustprogress nofree norecurse nosync nounwind willreturn memory(argmem: readwrite) uwtable
define dso_local void @ExecHashGetBucketAndBatch(ptr noundef readonly captures(none) %0, i32 noundef %1, ptr noundef writeonly captures(none) initializes((0, 4)) %2, ptr noundef writeonly captures(none) initializes((0, 4)) %3) local_unnamed_addr #7 {
  %5 = load i32, ptr %0, align 8
  %6 = getelementptr inbounds nuw i8, ptr %0, i64 64
  %7 = load i32, ptr %6, align 8
  %8 = icmp ugt i32 %7, 1
  %9 = add i32 %5, -1
  %10 = and i32 %9, %1
  store i32 %10, ptr %2, align 4
  br i1 %8, label %11, label %20

11:                                               ; preds = %4
  %12 = getelementptr inbounds nuw i8, ptr %0, i64 4
  %13 = load i32, ptr %12, align 4
  %14 = lshr i32 %1, %13
  %15 = sub i32 32, %13
  %16 = shl i32 %1, %15
  %17 = or disjoint i32 %16, %14
  %18 = add i32 %7, -1
  %19 = and i32 %17, %18
  br label %20

20:                                               ; preds = %4, %11
  %storemerge = phi i32 [ %19, %11 ], [ 0, %4 ]
  store i32 %storemerge, ptr %3, align 4
  ret void
}